; Function Attrs: mustprogress uwtable
define noundef i64 @ggml_backend_buft_get_max_size(ptr noundef %0) local_unnamed_addr #0 {
  %2 = getelementptr inbounds nuw i8, ptr %0, i64 24
  %3 = load ptr, ptr %2, align 8, !tbaa !23
  %.not = icmp eq ptr %3, null
  br i1 %.not, label %6, label %4

4:                                                ; preds = %1
  %5 = tail call noundef i64 %3(ptr noundef nonnull %0)
  br label %6

6:                                                ; preds = %1, %4
  %.0 = phi i64 [ %5, %4 ], [ -1, %1 ]
  ret i64 %.0
}